; Function Attrs: mustprogress uwtable
define void @_ZN8facebook5velox19HashStringAllocator8newRangeEiPNS0_9ByteRangeES3_b(ptr noundef nonnull align 8 dereferenceable(37416) %this, i32 noundef %bytes, ptr noundef %lastRange, ptr nocapture noundef writeonly %range, i1 noundef zeroext %contiguous) local_unnamed_addr #0 align 2 {
entry:
  %currentHeader_ = getelementptr inbounds i8, ptr %this, i64 37272
  %0 = load ptr, ptr %currentHeader_, align 8
  %tobool.not = icmp eq ptr %0, null
  br i1 %tobool.not, label %if.then, label %if.end

if.then:                                          ; preds = %entry
  tail call void @llvm.trap()
  unreachable

if.end:                                           ; preds = %entry
  %call = tail call noundef ptr @_ZN8facebook5velox19HashStringAllocator8allocateEib(ptr noundef nonnull align 8 dereferenceable(37416) %this, i32 noundef %bytes, i1 noundef zeroext %contiguous)
  %1 = load ptr, ptr %currentHeader_, align 8
  %add.ptr.i.i = getelementptr inbounds i8, ptr %1, i64 4
  %2 = load i32, ptr %1, align 4
  %and.i.i = and i32 %2, 536870911
  %idx.ext.i = zext nneg i32 %and.i.i to i64
  %add.ptr.i = getelementptr inbounds i8, ptr %add.ptr.i.i, i64 %idx.ext.i
  %add.ptr = getelementptr inbounds i8, ptr %add.ptr.i, i64 -8
  %3 = load ptr, ptr %add.ptr, align 8
  %add.ptr.i8 = getelementptr inbounds i8, ptr %call, i64 4
  store ptr %3, ptr %add.ptr.i8, align 8
  store ptr %call, ptr %add.ptr, align 8
  %4 = load ptr, ptr %currentHeader_, align 8
  %5 = load i32, ptr %4, align 4
  %or.i = or i32 %5, 1073741824
  store i32 %or.i, ptr %4, align 4
  store ptr %call, ptr %currentHeader_, align 8
  %tobool8.not = icmp eq ptr %lastRange, null
  br i1 %tobool8.not, label %if.end14, label %if.then9

if.then9:                                         ; preds = %if.end
  %size = getelementptr inbounds i8, ptr %lastRange, i64 8
  %6 = load i32, ptr %size, align 8
  %sub = add i32 %6, -8
  store i32 %sub, ptr %size, align 8
  %position = getelementptr inbounds i8, ptr %lastRange, i64 12
  %7 = load i32, ptr %position, align 4
  %8 = tail call i32 @llvm.smin.i32(i32 %7, i32 %sub)
  store i32 %8, ptr %position, align 4
  %.pre = load ptr, ptr %currentHeader_, align 8
  br label %if.end14

if.end14:                                         ; preds = %if.then9, %if.end
  %9 = phi ptr [ %.pre, %if.then9 ], [ %call, %if.end ]
  %add.ptr.i9 = getelementptr inbounds i8, ptr %9, i64 4
  %10 = load i32, ptr %9, align 4
  %and.i = and i32 %10, 536870911
  store ptr %add.ptr.i9, ptr %range, align 8
  %ref.tmp.sroa.2.0..sroa_idx = getelementptr inbounds i8, ptr %range, i64 8
  store i32 %and.i, ptr %ref.tmp.sroa.2.0..sroa_idx, align 8
  %ref.tmp.sroa.3.0..sroa_idx = getelementptr inbounds i8, ptr %range, i64 12
  store i32 8, ptr %ref.tmp.sroa.3.0..sroa_idx, align 4
  ret void
}